target datalayout = "e-m:e-p270:32:32-p271:32:32-p272:64:64-i64:64-i128:128-f80:128-n8:16:32:64-S128"
target triple = "x86_64-pc-linux-gnu"

%struct.FunctionCallInfoBaseData = type { ptr, ptr, ptr, i32, i8, i16, [0 x %struct.NullableDatum] }
%struct.NullableDatum = type { i64, i8 }
%struct.ReturnSetInfo = type { i32, ptr, ptr, i32, i32, i32, ptr, ptr }
%struct.ConfigVariable = type { ptr, ptr, ptr, ptr, i32, i8, i8, ptr }

; Function Attrs: inlinehint nounwind uwtable
define internal i64 @BoolGetDatum(i1 noundef zeroext %0) #6 {
  %2 = alloca i8, align 1
  %3 = zext i1 %0 to i8
  store i8 %3, ptr %2, align 1
  %4 = load i8, ptr %2, align 1, !range !4, !noundef !5
  %5 = trunc i8 %4 to i1
  %6 = select i1 %5, i32 1, i32 0
  %7 = sext i32 %6 to i64
  ret i64 %7
}

; Function Attrs: inlinehint nounwind uwtable
define internal i64 @Int32GetDatum(i32 noundef %0) #6 {
  %2 = alloca i32, align 4
  store i32 %0, ptr %2, align 4
  %3 = load i32, ptr %2, align 4
  %4 = sext i32 %3 to i64
  ret i64 %4
}

; Function Attrs: inlinehint nounwind uwtable
define internal i64 @PointerGetDatum(ptr noundef %0) #6 {
  %2 = alloca ptr, align 8
  store ptr %0, ptr %2, align 8
  %3 = load ptr, ptr %2, align 8
  %4 = ptrtoint ptr %3 to i64
  ret i64 %4
}

; Function Attrs: nounwind uwtable
define dso_local i64 @show_all_file_settings(ptr noundef %0) #0 {
  %2 = alloca ptr, align 8
  %3 = alloca ptr, align 8
  %4 = alloca ptr, align 8
  %5 = alloca i32, align 4
  %6 = alloca [7 x i64], align 16
  %7 = alloca [7 x i8], align 1
  store ptr %0, ptr %2, align 8
  call void @llvm.lifetime.start.p0(i64 8, ptr %3) #7
  %8 = load ptr, ptr %2, align 8
  %9 = getelementptr inbounds nuw %struct.FunctionCallInfoBaseData, ptr %8, i32 0, i32 2
  %10 = load ptr, ptr %9, align 8
  store ptr %10, ptr %3, align 8
  call void @llvm.lifetime.start.p0(i64 8, ptr %4) #7
  call void @llvm.lifetime.start.p0(i64 4, ptr %5) #7
  %11 = call ptr @ProcessConfigFileInternal(i32 noundef 2, i1 noundef zeroext false, i32 noundef 12)
  store ptr %11, ptr %4, align 8
  %12 = load ptr, ptr %2, align 8
  call void @InitMaterializedSRF(ptr noundef %12, i32 noundef 0)
  store i32 1, ptr %5, align 4
  br label %13

13:                                               ; preds = %105, %1
  %14 = load ptr, ptr %4, align 8
  %15 = icmp ne ptr %14, null
  br i1 %15, label %16, label %111

16:                                               ; preds = %13
  call void @llvm.lifetime.start.p0(i64 56, ptr %6) #7
  call void @llvm.lifetime.start.p0(i64 7, ptr %7) #7
  %17 = getelementptr inbounds [7 x i64], ptr %6, i64 0, i64 0
  call void @llvm.memset.p0.i64(ptr align 16 %17, i8 0, i64 56, i1 false)
  %18 = getelementptr inbounds [7 x i8], ptr %7, i64 0, i64 0
  call void @llvm.memset.p0.i64(ptr align 1 %18, i8 0, i64 7, i1 false)
  %19 = load ptr, ptr %4, align 8
  %20 = getelementptr inbounds nuw %struct.ConfigVariable, ptr %19, i32 0, i32 3
  %21 = load ptr, ptr %20, align 8
  %22 = icmp ne ptr %21, null
  br i1 %22, label %23, label %30

23:                                               ; preds = %16
  %24 = load ptr, ptr %4, align 8
  %25 = getelementptr inbounds nuw %struct.ConfigVariable, ptr %24, i32 0, i32 3
  %26 = load ptr, ptr %25, align 8
  %27 = call ptr @cstring_to_text(ptr noundef %26)
  %28 = call i64 @PointerGetDatum(ptr noundef %27)
  %29 = getelementptr inbounds [7 x i64], ptr %6, i64 0, i64 0
  store i64 %28, ptr %29, align 16
  br label %32

30:                                               ; preds = %16
  %31 = getelementptr inbounds [7 x i8], ptr %7, i64 0, i64 0
  store i8 1, ptr %31, align 1
  br label %32

32:                                               ; preds = %30, %23
  %33 = load ptr, ptr %4, align 8
  %34 = getelementptr inbounds nuw %struct.ConfigVariable, ptr %33, i32 0, i32 3
  %35 = load ptr, ptr %34, align 8
  %36 = icmp ne ptr %35, null
  br i1 %36, label %37, label %43

37:                                               ; preds = %32
  %38 = load ptr, ptr %4, align 8
  %39 = getelementptr inbounds nuw %struct.ConfigVariable, ptr %38, i32 0, i32 4
  %40 = load i32, ptr %39, align 8
  %41 = call i64 @Int32GetDatum(i32 noundef %40)
  %42 = getelementptr inbounds [7 x i64], ptr %6, i64 0, i64 1
  store i64 %41, ptr %42, align 8
  br label %45

43:                                               ; preds = %32
  %44 = getelementptr inbounds [7 x i8], ptr %7, i64 0, i64 1
  store i8 1, ptr %44, align 1
  br label %45

45:                                               ; preds = %43, %37
  %46 = load i32, ptr %5, align 4
  %47 = call i64 @Int32GetDatum(i32 noundef %46)
  %48 = getelementptr inbounds [7 x i64], ptr %6, i64 0, i64 2
  store i64 %47, ptr %48, align 16
  %49 = load ptr, ptr %4, align 8
  %50 = getelementptr inbounds nuw %struct.ConfigVariable, ptr %49, i32 0, i32 0
  %51 = load ptr, ptr %50, align 8
  %52 = icmp ne ptr %51, null
  br i1 %52, label %53, label %60

53:                                               ; preds = %45
  %54 = load ptr, ptr %4, align 8
  %55 = getelementptr inbounds nuw %struct.ConfigVariable, ptr %54, i32 0, i32 0
  %56 = load ptr, ptr %55, align 8
  %57 = call ptr @cstring_to_text(ptr noundef %56)
  %58 = call i64 @PointerGetDatum(ptr noundef %57)
  %59 = getelementptr inbounds [7 x i64], ptr %6, i64 0, i64 3
  store i64 %58, ptr %59, align 8
  br label %62

60:                                               ; preds = %45
  %61 = getelementptr inbounds [7 x i8], ptr %7, i64 0, i64 3
  store i8 1, ptr %61, align 1
  br label %62

62:                                               ; preds = %60, %53
  %63 = load ptr, ptr %4, align 8
  %64 = getelementptr inbounds nuw %struct.ConfigVariable, ptr %63, i32 0, i32 1
  %65 = load ptr, ptr %64, align 8
  %66 = icmp ne ptr %65, null
  br i1 %66, label %67, label %74

67:                                               ; preds = %62
  %68 = load ptr, ptr %4, align 8
  %69 = getelementptr inbounds nuw %struct.ConfigVariable, ptr %68, i32 0, i32 1
  %70 = load ptr, ptr %69, align 8
  %71 = call ptr @cstring_to_text(ptr noundef %70)
  %72 = call i64 @PointerGetDatum(ptr noundef %71)
  %73 = getelementptr inbounds [7 x i64], ptr %6, i64 0, i64 4
  store i64 %72, ptr %73, align 16
  br label %76

74:                                               ; preds = %62
  %75 = getelementptr inbounds [7 x i8], ptr %7, i64 0, i64 4
  store i8 1, ptr %75, align 1
  br label %76

76:                                               ; preds = %74, %67
  %77 = load ptr, ptr %4, align 8
  %78 = getelementptr inbounds nuw %struct.ConfigVariable, ptr %77, i32 0, i32 6
  %79 = load i8, ptr %78, align 1, !range !4, !noundef !5
  %80 = trunc i8 %79 to i1
  %81 = call i64 @BoolGetDatum(i1 noundef zeroext %80)
  %82 = getelementptr inbounds [7 x i64], ptr %6, i64 0, i64 5
  store i64 %81, ptr %82, align 8
  %83 = load ptr, ptr %4, align 8
  %84 = getelementptr inbounds nuw %struct.ConfigVariable, ptr %83, i32 0, i32 2
  %85 = load ptr, ptr %84, align 8
  %86 = icmp ne ptr %85, null
  br i1 %86, label %87, label %94

87:                                               ; preds = %76
  %88 = load ptr, ptr %4, align 8
  %89 = getelementptr inbounds nuw %struct.ConfigVariable, ptr %88, i32 0, i32 2
  %90 = load ptr, ptr %89, align 8
  %91 = call ptr @cstring_to_text(ptr noundef %90)
  %92 = call i64 @PointerGetDatum(ptr noundef %91)
  %93 = getelementptr inbounds [7 x i64], ptr %6, i64 0, i64 6
  store i64 %92, ptr %93, align 16
  br label %96

94:                                               ; preds = %76
  %95 = getelementptr inbounds [7 x i8], ptr %7, i64 0, i64 6
  store i8 1, ptr %95, align 1
  br label %96

96:                                               ; preds = %94, %87
  %97 = load ptr, ptr %3, align 8
  %98 = getelementptr inbounds nuw %struct.ReturnSetInfo, ptr %97, i32 0, i32 6
  %99 = load ptr, ptr %98, align 8
  %100 = load ptr, ptr %3, align 8
  %101 = getelementptr inbounds nuw %struct.ReturnSetInfo, ptr %100, i32 0, i32 7
  %102 = load ptr, ptr %101, align 8
  %103 = getelementptr inbounds [7 x i64], ptr %6, i64 0, i64 0
  %104 = getelementptr inbounds [7 x i8], ptr %7, i64 0, i64 0
  call void @tuplestore_putvalues(ptr noundef %99, ptr noundef %102, ptr noundef %103, ptr noundef %104)
  call void @llvm.lifetime.end.p0(i64 7, ptr %7) #7
  call void @llvm.lifetime.end.p0(i64 56, ptr %6) #7
  br label %105

105:                                              ; preds = %96
  %106 = load ptr, ptr %4, align 8
  %107 = getelementptr inbounds nuw %struct.ConfigVariable, ptr %106, i32 0, i32 7
  %108 = load ptr, ptr %107, align 8
  store ptr %108, ptr %4, align 8
  %109 = load i32, ptr %5, align 4
  %110 = add i32 %109, 1
  store i32 %110, ptr %5, align 4
  br label %13, !llvm.loop !12

111:                                              ; preds = %13
  call void @llvm.lifetime.end.p0(i64 4, ptr %5) #7
  call void @llvm.lifetime.end.p0(i64 8, ptr %4) #7
  call void @llvm.lifetime.end.p0(i64 8, ptr %3) #7
  ret i64 0
}