; Function Attrs: nounwind uwtable
define dso_local noundef i64 @show_all_file_settings(ptr noundef %0) local_unnamed_addr #0 {
  %2 = alloca [7 x i64], align 16
  %3 = alloca [7 x i8], align 1
  %4 = getelementptr inbounds nuw i8, ptr %0, i64 16
  %5 = load ptr, ptr %4, align 8
  %6 = tail call ptr @ProcessConfigFileInternal(i32 noundef 2, i1 noundef zeroext false, i32 noundef 12) #7
  tail call void @InitMaterializedSRF(ptr noundef %0, i32 noundef 0) #7
  %.not29 = icmp eq ptr %6, null
  br i1 %.not29, label %._crit_edge, label %.lr.ph

.lr.ph:                                           ; preds = %1
  %7 = getelementptr inbounds nuw i8, ptr %2, i64 8
  %8 = getelementptr inbounds nuw i8, ptr %3, i64 1
  %9 = getelementptr inbounds nuw i8, ptr %2, i64 16
  %10 = getelementptr inbounds nuw i8, ptr %2, i64 24
  %11 = getelementptr inbounds nuw i8, ptr %3, i64 3
  %12 = getelementptr inbounds nuw i8, ptr %2, i64 32
  %13 = getelementptr inbounds nuw i8, ptr %3, i64 4
  %14 = getelementptr inbounds nuw i8, ptr %2, i64 40
  %15 = getelementptr inbounds nuw i8, ptr %2, i64 48
  %16 = getelementptr inbounds nuw i8, ptr %3, i64 6
  %17 = getelementptr inbounds nuw i8, ptr %5, i64 40
  %18 = getelementptr inbounds nuw i8, ptr %5, i64 48
  br label %19

19:                                               ; preds = %.lr.ph, %54
  %.031 = phi i32 [ 1, %.lr.ph ], [ %59, %54 ]
  %.01830 = phi ptr [ %6, %.lr.ph ], [ %58, %54 ]
  call void @llvm.lifetime.start.p0(i64 56, ptr nonnull %2) #7
  call void @llvm.lifetime.start.p0(i64 7, ptr nonnull %3) #7
  call void @llvm.memset.p0.i64(ptr noundef nonnull align 16 dereferenceable(56) %2, i8 0, i64 56, i1 false)
  call void @llvm.memset.p0.i64(ptr noundef nonnull align 1 dereferenceable(7) %3, i8 0, i64 7, i1 false)
  %20 = getelementptr inbounds nuw i8, ptr %.01830, i64 24
  %21 = load ptr, ptr %20, align 8
  %.not23 = icmp eq ptr %21, null
  br i1 %.not23, label %.thread, label %22

.thread:                                          ; preds = %19
  store i8 1, ptr %3, align 1
  br label %29

22:                                               ; preds = %19
  %23 = call ptr @cstring_to_text(ptr noundef nonnull %21) #7
  %24 = ptrtoint ptr %23 to i64
  store i64 %24, ptr %2, align 16
  %.pr = load ptr, ptr %20, align 8
  %.not24 = icmp eq ptr %.pr, null
  br i1 %.not24, label %29, label %25

25:                                               ; preds = %22
  %26 = getelementptr inbounds nuw i8, ptr %.01830, i64 32
  %27 = load i32, ptr %26, align 8
  %28 = sext i32 %27 to i64
  store i64 %28, ptr %7, align 8
  br label %30

29:                                               ; preds = %.thread, %22
  store i8 1, ptr %8, align 1
  br label %30

30:                                               ; preds = %29, %25
  %31 = sext i32 %.031 to i64
  store i64 %31, ptr %9, align 16
  %32 = load ptr, ptr %.01830, align 8
  %.not25 = icmp eq ptr %32, null
  br i1 %.not25, label %36, label %33

33:                                               ; preds = %30
  %34 = call ptr @cstring_to_text(ptr noundef nonnull %32) #7
  %35 = ptrtoint ptr %34 to i64
  store i64 %35, ptr %10, align 8
  br label %37

36:                                               ; preds = %30
  store i8 1, ptr %11, align 1
  br label %37

37:                                               ; preds = %36, %33
  %38 = getelementptr inbounds nuw i8, ptr %.01830, i64 8
  %39 = load ptr, ptr %38, align 8
  %.not26 = icmp eq ptr %39, null
  br i1 %.not26, label %43, label %40

40:                                               ; preds = %37
  %41 = call ptr @cstring_to_text(ptr noundef nonnull %39) #7
  %42 = ptrtoint ptr %41 to i64
  store i64 %42, ptr %12, align 16
  br label %44

43:                                               ; preds = %37
  store i8 1, ptr %13, align 1
  br label %44

44:                                               ; preds = %43, %40
  %45 = getelementptr inbounds nuw i8, ptr %.01830, i64 37
  %46 = load i8, ptr %45, align 1, !range !4, !noundef !5
  %47 = zext nneg i8 %46 to i64
  store i64 %47, ptr %14, align 8
  %48 = getelementptr inbounds nuw i8, ptr %.01830, i64 16
  %49 = load ptr, ptr %48, align 8
  %.not27 = icmp eq ptr %49, null
  br i1 %.not27, label %53, label %50

50:                                               ; preds = %44
  %51 = call ptr @cstring_to_text(ptr noundef nonnull %49) #7
  %52 = ptrtoint ptr %51 to i64
  store i64 %52, ptr %15, align 16
  br label %54

53:                                               ; preds = %44
  store i8 1, ptr %16, align 1
  br label %54

54:                                               ; preds = %53, %50
  %55 = load ptr, ptr %17, align 8
  %56 = load ptr, ptr %18, align 8
  call void @tuplestore_putvalues(ptr noundef %55, ptr noundef %56, ptr noundef nonnull %2, ptr noundef nonnull %3) #7
  call void @llvm.lifetime.end.p0(i64 7, ptr nonnull %3) #7
  call void @llvm.lifetime.end.p0(i64 56, ptr nonnull %2) #7
  %57 = getelementptr inbounds nuw i8, ptr %.01830, i64 40
  %58 = load ptr, ptr %57, align 8
  %59 = add i32 %.031, 1
  %.not = icmp eq ptr %58, null
  br i1 %.not, label %._crit_edge, label %19, !llvm.loop !9

._crit_edge:                                      ; preds = %54, %1
  ret i64 0
}